target datalayout = "e-m:e-p270:32:32-p271:32:32-p272:64:64-i64:64-i128:128-f80:128-n8:16:32:64-S128"
target triple = "x86_64-pc-linux-gnu"

%struct.AVComplexDouble = type { double, double }
%struct.AVTXContext = type { i32, i32, ptr, ptr, ptr, ptr, [4 x ptr], i32, [4 x ptr], ptr, i32, i64, i32, float, double, ptr }

; Function Attrs: nounwind uwtable
define internal void @ff_tx_rdft_c2r_double_c(ptr noundef %0, ptr noundef %1, ptr noundef %2, i64 noundef %3) #4 {
  %5 = alloca ptr, align 8
  %6 = alloca ptr, align 8
  %7 = alloca ptr, align 8
  %8 = alloca i64, align 8
  %9 = alloca i32, align 4
  %10 = alloca i32, align 4
  %11 = alloca ptr, align 8
  %12 = alloca ptr, align 8
  %13 = alloca ptr, align 8
  %14 = alloca ptr, align 8
  %15 = alloca [3 x %struct.AVComplexDouble], align 16
  %16 = alloca i32, align 4
  store ptr %0, ptr %5, align 8, !tbaa !17
  store ptr %1, ptr %6, align 8, !tbaa !8
  store ptr %2, ptr %7, align 8, !tbaa !8
  store i64 %3, ptr %8, align 8, !tbaa !30
  call void @llvm.lifetime.start.p0(i64 4, ptr %9) #10
  %17 = load ptr, ptr %5, align 8, !tbaa !17
  %18 = getelementptr inbounds nuw %struct.AVTXContext, ptr %17, i32 0, i32 0
  %19 = load i32, ptr %18, align 8, !tbaa !21
  %20 = ashr i32 %19, 1
  store i32 %20, ptr %9, align 4, !tbaa !4
  call void @llvm.lifetime.start.p0(i64 4, ptr %10) #10
  %21 = load ptr, ptr %5, align 8, !tbaa !17
  %22 = getelementptr inbounds nuw %struct.AVTXContext, ptr %21, i32 0, i32 0
  %23 = load i32, ptr %22, align 8, !tbaa !21
  %24 = ashr i32 %23, 2
  store i32 %24, ptr %10, align 4, !tbaa !4
  call void @llvm.lifetime.start.p0(i64 8, ptr %11) #10
  %25 = load ptr, ptr %5, align 8, !tbaa !17
  %26 = getelementptr inbounds nuw %struct.AVTXContext, ptr %25, i32 0, i32 3
  %27 = load ptr, ptr %26, align 8, !tbaa !31
  store ptr %27, ptr %11, align 8, !tbaa !38
  call void @llvm.lifetime.start.p0(i64 8, ptr %12) #10
  %28 = load ptr, ptr %11, align 8, !tbaa !38
  %29 = getelementptr inbounds double, ptr %28, i64 8
  store ptr %29, ptr %12, align 8, !tbaa !38
  call void @llvm.lifetime.start.p0(i64 8, ptr %13) #10
  %30 = load ptr, ptr %12, align 8, !tbaa !38
  %31 = load i32, ptr %10, align 4, !tbaa !4
  %32 = sext i32 %31 to i64
  %33 = getelementptr inbounds double, ptr %30, i64 %32
  store ptr %33, ptr %13, align 8, !tbaa !38
  call void @llvm.lifetime.start.p0(i64 8, ptr %14) #10
  %34 = load ptr, ptr %7, align 8, !tbaa !8
  store ptr %34, ptr %14, align 8, !tbaa !59
  call void @llvm.lifetime.start.p0(i64 48, ptr %15) #10
  %35 = load ptr, ptr %14, align 8, !tbaa !59
  %36 = load i32, ptr %9, align 4, !tbaa !4
  %37 = sext i32 %36 to i64
  %38 = getelementptr inbounds %struct.AVComplexDouble, ptr %35, i64 %37
  %39 = getelementptr inbounds nuw %struct.AVComplexDouble, ptr %38, i32 0, i32 0
  %40 = load double, ptr %39, align 8, !tbaa !32
  %41 = load ptr, ptr %14, align 8, !tbaa !59
  %42 = getelementptr inbounds %struct.AVComplexDouble, ptr %41, i64 0
  %43 = getelementptr inbounds nuw %struct.AVComplexDouble, ptr %42, i32 0, i32 1
  store double %40, ptr %43, align 8, !tbaa !34
  %44 = load ptr, ptr %14, align 8, !tbaa !59
  %45 = getelementptr inbounds %struct.AVComplexDouble, ptr %44, i64 0
  %46 = getelementptr inbounds nuw %struct.AVComplexDouble, ptr %45, i32 0, i32 0
  %47 = load double, ptr %46, align 8, !tbaa !32
  %48 = getelementptr inbounds [3 x %struct.AVComplexDouble], ptr %15, i64 0, i64 0
  %49 = getelementptr inbounds nuw %struct.AVComplexDouble, ptr %48, i32 0, i32 0
  store double %47, ptr %49, align 16, !tbaa !32
  %50 = getelementptr inbounds [3 x %struct.AVComplexDouble], ptr %15, i64 0, i64 0
  %51 = getelementptr inbounds nuw %struct.AVComplexDouble, ptr %50, i32 0, i32 0
  %52 = load double, ptr %51, align 16, !tbaa !32
  %53 = load ptr, ptr %14, align 8, !tbaa !59
  %54 = getelementptr inbounds %struct.AVComplexDouble, ptr %53, i64 0
  %55 = getelementptr inbounds nuw %struct.AVComplexDouble, ptr %54, i32 0, i32 1
  %56 = load double, ptr %55, align 8, !tbaa !34
  %57 = fadd nsz double %52, %56
  %58 = load ptr, ptr %14, align 8, !tbaa !59
  %59 = getelementptr inbounds %struct.AVComplexDouble, ptr %58, i64 0
  %60 = getelementptr inbounds nuw %struct.AVComplexDouble, ptr %59, i32 0, i32 0
  store double %57, ptr %60, align 8, !tbaa !32
  %61 = getelementptr inbounds [3 x %struct.AVComplexDouble], ptr %15, i64 0, i64 0
  %62 = getelementptr inbounds nuw %struct.AVComplexDouble, ptr %61, i32 0, i32 0
  %63 = load double, ptr %62, align 16, !tbaa !32
  %64 = load ptr, ptr %14, align 8, !tbaa !59
  %65 = getelementptr inbounds %struct.AVComplexDouble, ptr %64, i64 0
  %66 = getelementptr inbounds nuw %struct.AVComplexDouble, ptr %65, i32 0, i32 1
  %67 = load double, ptr %66, align 8, !tbaa !34
  %68 = fsub nsz double %63, %67
  %69 = load ptr, ptr %14, align 8, !tbaa !59
  %70 = getelementptr inbounds %struct.AVComplexDouble, ptr %69, i64 0
  %71 = getelementptr inbounds nuw %struct.AVComplexDouble, ptr %70, i32 0, i32 1
  store double %68, ptr %71, align 8, !tbaa !34
  %72 = load ptr, ptr %11, align 8, !tbaa !38
  %73 = getelementptr inbounds double, ptr %72, i64 0
  %74 = load double, ptr %73, align 8, !tbaa !29
  %75 = load ptr, ptr %14, align 8, !tbaa !59
  %76 = getelementptr inbounds %struct.AVComplexDouble, ptr %75, i64 0
  %77 = getelementptr inbounds nuw %struct.AVComplexDouble, ptr %76, i32 0, i32 0
  %78 = load double, ptr %77, align 8, !tbaa !32
  %79 = fmul nsz double %74, %78
  %80 = load ptr, ptr %14, align 8, !tbaa !59
  %81 = getelementptr inbounds %struct.AVComplexDouble, ptr %80, i64 0
  %82 = getelementptr inbounds nuw %struct.AVComplexDouble, ptr %81, i32 0, i32 0
  store double %79, ptr %82, align 8, !tbaa !32
  %83 = load ptr, ptr %11, align 8, !tbaa !38
  %84 = getelementptr inbounds double, ptr %83, i64 1
  %85 = load double, ptr %84, align 8, !tbaa !29
  %86 = load ptr, ptr %14, align 8, !tbaa !59
  %87 = getelementptr inbounds %struct.AVComplexDouble, ptr %86, i64 0
  %88 = getelementptr inbounds nuw %struct.AVComplexDouble, ptr %87, i32 0, i32 1
  %89 = load double, ptr %88, align 8, !tbaa !34
  %90 = fmul nsz double %85, %89
  %91 = load ptr, ptr %14, align 8, !tbaa !59
  %92 = getelementptr inbounds %struct.AVComplexDouble, ptr %91, i64 0
  %93 = getelementptr inbounds nuw %struct.AVComplexDouble, ptr %92, i32 0, i32 1
  store double %90, ptr %93, align 8, !tbaa !34
  %94 = load ptr, ptr %11, align 8, !tbaa !38
  %95 = getelementptr inbounds double, ptr %94, i64 2
  %96 = load double, ptr %95, align 8, !tbaa !29
  %97 = load ptr, ptr %14, align 8, !tbaa !59
  %98 = load i32, ptr %10, align 4, !tbaa !4
  %99 = sext i32 %98 to i64
  %100 = getelementptr inbounds %struct.AVComplexDouble, ptr %97, i64 %99
  %101 = getelementptr inbounds nuw %struct.AVComplexDouble, ptr %100, i32 0, i32 0
  %102 = load double, ptr %101, align 8, !tbaa !32
  %103 = fmul nsz double %96, %102
  %104 = load ptr, ptr %14, align 8, !tbaa !59
  %105 = load i32, ptr %10, align 4, !tbaa !4
  %106 = sext i32 %105 to i64
  %107 = getelementptr inbounds %struct.AVComplexDouble, ptr %104, i64 %106
  %108 = getelementptr inbounds nuw %struct.AVComplexDouble, ptr %107, i32 0, i32 0
  store double %103, ptr %108, align 8, !tbaa !32
  %109 = load ptr, ptr %11, align 8, !tbaa !38
  %110 = getelementptr inbounds double, ptr %109, i64 3
  %111 = load double, ptr %110, align 8, !tbaa !29
  %112 = load ptr, ptr %14, align 8, !tbaa !59
  %113 = load i32, ptr %10, align 4, !tbaa !4
  %114 = sext i32 %113 to i64
  %115 = getelementptr inbounds %struct.AVComplexDouble, ptr %112, i64 %114
  %116 = getelementptr inbounds nuw %struct.AVComplexDouble, ptr %115, i32 0, i32 1
  %117 = load double, ptr %116, align 8, !tbaa !34
  %118 = fmul nsz double %111, %117
  %119 = load ptr, ptr %14, align 8, !tbaa !59
  %120 = load i32, ptr %10, align 4, !tbaa !4
  %121 = sext i32 %120 to i64
  %122 = getelementptr inbounds %struct.AVComplexDouble, ptr %119, i64 %121
  %123 = getelementptr inbounds nuw %struct.AVComplexDouble, ptr %122, i32 0, i32 1
  store double %118, ptr %123, align 8, !tbaa !34
  call void @llvm.lifetime.start.p0(i64 4, ptr %16) #10
  store i32 1, ptr %16, align 4, !tbaa !4
  br label %124

124:                                              ; preds = %310, %4
  %125 = load i32, ptr %16, align 4, !tbaa !4
  %126 = load i32, ptr %10, align 4, !tbaa !4
  %127 = icmp slt i32 %125, %126
  br i1 %127, label %129, label %128

128:                                              ; preds = %124
  call void @llvm.lifetime.end.p0(i64 4, ptr %16) #10
  br label %313

129:                                              ; preds = %124
  %130 = load ptr, ptr %11, align 8, !tbaa !38
  %131 = getelementptr inbounds double, ptr %130, i64 4
  %132 = load double, ptr %131, align 8, !tbaa !29
  %133 = load ptr, ptr %14, align 8, !tbaa !59
  %134 = load i32, ptr %16, align 4, !tbaa !4
  %135 = sext i32 %134 to i64
  %136 = getelementptr inbounds %struct.AVComplexDouble, ptr %133, i64 %135
  %137 = getelementptr inbounds nuw %struct.AVComplexDouble, ptr %136, i32 0, i32 0
  %138 = load double, ptr %137, align 8, !tbaa !32
  %139 = load ptr, ptr %14, align 8, !tbaa !59
  %140 = load i32, ptr %9, align 4, !tbaa !4
  %141 = load i32, ptr %16, align 4, !tbaa !4
  %142 = sub nsw i32 %140, %141
  %143 = sext i32 %142 to i64
  %144 = getelementptr inbounds %struct.AVComplexDouble, ptr %139, i64 %143
  %145 = getelementptr inbounds nuw %struct.AVComplexDouble, ptr %144, i32 0, i32 0
  %146 = load double, ptr %145, align 8, !tbaa !32
  %147 = fadd nsz double %138, %146
  %148 = fmul nsz double %132, %147
  %149 = getelementptr inbounds [3 x %struct.AVComplexDouble], ptr %15, i64 0, i64 0
  %150 = getelementptr inbounds nuw %struct.AVComplexDouble, ptr %149, i32 0, i32 0
  store double %148, ptr %150, align 16, !tbaa !32
  %151 = load ptr, ptr %11, align 8, !tbaa !38
  %152 = getelementptr inbounds double, ptr %151, i64 5
  %153 = load double, ptr %152, align 8, !tbaa !29
  %154 = load ptr, ptr %14, align 8, !tbaa !59
  %155 = load i32, ptr %16, align 4, !tbaa !4
  %156 = sext i32 %155 to i64
  %157 = getelementptr inbounds %struct.AVComplexDouble, ptr %154, i64 %156
  %158 = getelementptr inbounds nuw %struct.AVComplexDouble, ptr %157, i32 0, i32 1
  %159 = load double, ptr %158, align 8, !tbaa !34
  %160 = load ptr, ptr %14, align 8, !tbaa !59
  %161 = load i32, ptr %9, align 4, !tbaa !4
  %162 = load i32, ptr %16, align 4, !tbaa !4
  %163 = sub nsw i32 %161, %162
  %164 = sext i32 %163 to i64
  %165 = getelementptr inbounds %struct.AVComplexDouble, ptr %160, i64 %164
  %166 = getelementptr inbounds nuw %struct.AVComplexDouble, ptr %165, i32 0, i32 1
  %167 = load double, ptr %166, align 8, !tbaa !34
  %168 = fsub nsz double %159, %167
  %169 = fmul nsz double %153, %168
  %170 = getelementptr inbounds [3 x %struct.AVComplexDouble], ptr %15, i64 0, i64 0
  %171 = getelementptr inbounds nuw %struct.AVComplexDouble, ptr %170, i32 0, i32 1
  store double %169, ptr %171, align 8, !tbaa !34
  %172 = load ptr, ptr %11, align 8, !tbaa !38
  %173 = getelementptr inbounds double, ptr %172, i64 6
  %174 = load double, ptr %173, align 8, !tbaa !29
  %175 = load ptr, ptr %14, align 8, !tbaa !59
  %176 = load i32, ptr %16, align 4, !tbaa !4
  %177 = sext i32 %176 to i64
  %178 = getelementptr inbounds %struct.AVComplexDouble, ptr %175, i64 %177
  %179 = getelementptr inbounds nuw %struct.AVComplexDouble, ptr %178, i32 0, i32 1
  %180 = load double, ptr %179, align 8, !tbaa !34
  %181 = load ptr, ptr %14, align 8, !tbaa !59
  %182 = load i32, ptr %9, align 4, !tbaa !4
  %183 = load i32, ptr %16, align 4, !tbaa !4
  %184 = sub nsw i32 %182, %183
  %185 = sext i32 %184 to i64
  %186 = getelementptr inbounds %struct.AVComplexDouble, ptr %181, i64 %185
  %187 = getelementptr inbounds nuw %struct.AVComplexDouble, ptr %186, i32 0, i32 1
  %188 = load double, ptr %187, align 8, !tbaa !34
  %189 = fadd nsz double %180, %188
  %190 = fmul nsz double %174, %189
  %191 = getelementptr inbounds [3 x %struct.AVComplexDouble], ptr %15, i64 0, i64 1
  %192 = getelementptr inbounds nuw %struct.AVComplexDouble, ptr %191, i32 0, i32 0
  store double %190, ptr %192, align 16, !tbaa !32
  %193 = load ptr, ptr %11, align 8, !tbaa !38
  %194 = getelementptr inbounds double, ptr %193, i64 7
  %195 = load double, ptr %194, align 8, !tbaa !29
  %196 = load ptr, ptr %14, align 8, !tbaa !59
  %197 = load i32, ptr %16, align 4, !tbaa !4
  %198 = sext i32 %197 to i64
  %199 = getelementptr inbounds %struct.AVComplexDouble, ptr %196, i64 %198
  %200 = getelementptr inbounds nuw %struct.AVComplexDouble, ptr %199, i32 0, i32 0
  %201 = load double, ptr %200, align 8, !tbaa !32
  %202 = load ptr, ptr %14, align 8, !tbaa !59
  %203 = load i32, ptr %9, align 4, !tbaa !4
  %204 = load i32, ptr %16, align 4, !tbaa !4
  %205 = sub nsw i32 %203, %204
  %206 = sext i32 %205 to i64
  %207 = getelementptr inbounds %struct.AVComplexDouble, ptr %202, i64 %206
  %208 = getelementptr inbounds nuw %struct.AVComplexDouble, ptr %207, i32 0, i32 0
  %209 = load double, ptr %208, align 8, !tbaa !32
  %210 = fsub nsz double %201, %209
  %211 = fmul nsz double %195, %210
  %212 = getelementptr inbounds [3 x %struct.AVComplexDouble], ptr %15, i64 0, i64 1
  %213 = getelementptr inbounds nuw %struct.AVComplexDouble, ptr %212, i32 0, i32 1
  store double %211, ptr %213, align 8, !tbaa !34
  br label %214

214:                                              ; preds = %129
  %215 = getelementptr inbounds [3 x %struct.AVComplexDouble], ptr %15, i64 0, i64 1
  %216 = getelementptr inbounds nuw %struct.AVComplexDouble, ptr %215, i32 0, i32 0
  %217 = load double, ptr %216, align 16, !tbaa !32
  %218 = load ptr, ptr %12, align 8, !tbaa !38
  %219 = load i32, ptr %16, align 4, !tbaa !4
  %220 = sext i32 %219 to i64
  %221 = getelementptr inbounds double, ptr %218, i64 %220
  %222 = load double, ptr %221, align 8, !tbaa !29
  %223 = getelementptr inbounds [3 x %struct.AVComplexDouble], ptr %15, i64 0, i64 1
  %224 = getelementptr inbounds nuw %struct.AVComplexDouble, ptr %223, i32 0, i32 1
  %225 = load double, ptr %224, align 8, !tbaa !34
  %226 = load ptr, ptr %13, align 8, !tbaa !38
  %227 = load i32, ptr %16, align 4, !tbaa !4
  %228 = sext i32 %227 to i64
  %229 = getelementptr inbounds double, ptr %226, i64 %228
  %230 = load double, ptr %229, align 8, !tbaa !29
  %231 = fmul nsz double %225, %230
  %232 = fneg nsz double %231
  %233 = call nsz double @llvm.fmuladd.f64(double %217, double %222, double %232)
  %234 = getelementptr inbounds [3 x %struct.AVComplexDouble], ptr %15, i64 0, i64 2
  %235 = getelementptr inbounds nuw %struct.AVComplexDouble, ptr %234, i32 0, i32 0
  store double %233, ptr %235, align 16, !tbaa !32
  %236 = getelementptr inbounds [3 x %struct.AVComplexDouble], ptr %15, i64 0, i64 1
  %237 = getelementptr inbounds nuw %struct.AVComplexDouble, ptr %236, i32 0, i32 0
  %238 = load double, ptr %237, align 16, !tbaa !32
  %239 = load ptr, ptr %13, align 8, !tbaa !38
  %240 = load i32, ptr %16, align 4, !tbaa !4
  %241 = sext i32 %240 to i64
  %242 = getelementptr inbounds double, ptr %239, i64 %241
  %243 = load double, ptr %242, align 8, !tbaa !29
  %244 = getelementptr inbounds [3 x %struct.AVComplexDouble], ptr %15, i64 0, i64 1
  %245 = getelementptr inbounds nuw %struct.AVComplexDouble, ptr %244, i32 0, i32 1
  %246 = load double, ptr %245, align 8, !tbaa !34
  %247 = load ptr, ptr %12, align 8, !tbaa !38
  %248 = load i32, ptr %16, align 4, !tbaa !4
  %249 = sext i32 %248 to i64
  %250 = getelementptr inbounds double, ptr %247, i64 %249
  %251 = load double, ptr %250, align 8, !tbaa !29
  %252 = fmul nsz double %246, %251
  %253 = call nsz double @llvm.fmuladd.f64(double %238, double %243, double %252)
  %254 = getelementptr inbounds [3 x %struct.AVComplexDouble], ptr %15, i64 0, i64 2
  %255 = getelementptr inbounds nuw %struct.AVComplexDouble, ptr %254, i32 0, i32 1
  store double %253, ptr %255, align 8, !tbaa !34
  br label %256

256:                                              ; preds = %214
  br label %257

257:                                              ; preds = %256
  %258 = getelementptr inbounds [3 x %struct.AVComplexDouble], ptr %15, i64 0, i64 0
  %259 = getelementptr inbounds nuw %struct.AVComplexDouble, ptr %258, i32 0, i32 0
  %260 = load double, ptr %259, align 16, !tbaa !32
  %261 = getelementptr inbounds [3 x %struct.AVComplexDouble], ptr %15, i64 0, i64 2
  %262 = getelementptr inbounds nuw %struct.AVComplexDouble, ptr %261, i32 0, i32 0
  %263 = load double, ptr %262, align 16, !tbaa !32
  %264 = fadd nsz double %260, %263
  %265 = load ptr, ptr %14, align 8, !tbaa !59
  %266 = load i32, ptr %16, align 4, !tbaa !4
  %267 = sext i32 %266 to i64
  %268 = getelementptr inbounds %struct.AVComplexDouble, ptr %265, i64 %267
  %269 = getelementptr inbounds nuw %struct.AVComplexDouble, ptr %268, i32 0, i32 0
  store double %264, ptr %269, align 8, !tbaa !32
  %270 = getelementptr inbounds [3 x %struct.AVComplexDouble], ptr %15, i64 0, i64 2
  %271 = getelementptr inbounds nuw %struct.AVComplexDouble, ptr %270, i32 0, i32 1
  %272 = load double, ptr %271, align 8, !tbaa !34
  %273 = getelementptr inbounds [3 x %struct.AVComplexDouble], ptr %15, i64 0, i64 0
  %274 = getelementptr inbounds nuw %struct.AVComplexDouble, ptr %273, i32 0, i32 1
  %275 = load double, ptr %274, align 8, !tbaa !34
  %276 = fsub nsz double %272, %275
  %277 = load ptr, ptr %14, align 8, !tbaa !59
  %278 = load i32, ptr %16, align 4, !tbaa !4
  %279 = sext i32 %278 to i64
  %280 = getelementptr inbounds %struct.AVComplexDouble, ptr %277, i64 %279
  %281 = getelementptr inbounds nuw %struct.AVComplexDouble, ptr %280, i32 0, i32 1
  store double %276, ptr %281, align 8, !tbaa !34
  %282 = getelementptr inbounds [3 x %struct.AVComplexDouble], ptr %15, i64 0, i64 0
  %283 = getelementptr inbounds nuw %struct.AVComplexDouble, ptr %282, i32 0, i32 0
  %284 = load double, ptr %283, align 16, !tbaa !32
  %285 = getelementptr inbounds [3 x %struct.AVComplexDouble], ptr %15, i64 0, i64 2
  %286 = getelementptr inbounds nuw %struct.AVComplexDouble, ptr %285, i32 0, i32 0
  %287 = load double, ptr %286, align 16, !tbaa !32
  %288 = fsub nsz double %284, %287
  %289 = load ptr, ptr %14, align 8, !tbaa !59
  %290 = load i32, ptr %9, align 4, !tbaa !4
  %291 = load i32, ptr %16, align 4, !tbaa !4
  %292 = sub nsw i32 %290, %291
  %293 = sext i32 %292 to i64
  %294 = getelementptr inbounds %struct.AVComplexDouble, ptr %289, i64 %293
  %295 = getelementptr inbounds nuw %struct.AVComplexDouble, ptr %294, i32 0, i32 0
  store double %288, ptr %295, align 8, !tbaa !32
  %296 = getelementptr inbounds [3 x %struct.AVComplexDouble], ptr %15, i64 0, i64 2
  %297 = getelementptr inbounds nuw %struct.AVComplexDouble, ptr %296, i32 0, i32 1
  %298 = load double, ptr %297, align 8, !tbaa !34
  %299 = getelementptr inbounds [3 x %struct.AVComplexDouble], ptr %15, i64 0, i64 0
  %300 = getelementptr inbounds nuw %struct.AVComplexDouble, ptr %299, i32 0, i32 1
  %301 = load double, ptr %300, align 8, !tbaa !34
  %302 = fadd nsz double %298, %301
  %303 = load ptr, ptr %14, align 8, !tbaa !59
  %304 = load i32, ptr %9, align 4, !tbaa !4
  %305 = load i32, ptr %16, align 4, !tbaa !4
  %306 = sub nsw i32 %304, %305
  %307 = sext i32 %306 to i64
  %308 = getelementptr inbounds %struct.AVComplexDouble, ptr %303, i64 %307
  %309 = getelementptr inbounds nuw %struct.AVComplexDouble, ptr %308, i32 0, i32 1
  store double %302, ptr %309, align 8, !tbaa !34
  br label %310

310:                                              ; preds = %257
  %311 = load i32, ptr %16, align 4, !tbaa !4
  %312 = add nsw i32 %311, 1
  store i32 %312, ptr %16, align 4, !tbaa !4
  br label %124, !llvm.loop !158

313:                                              ; preds = %128
  %314 = load ptr, ptr %5, align 8, !tbaa !17
  %315 = getelementptr inbounds nuw %struct.AVTXContext, ptr %314, i32 0, i32 6
  %316 = getelementptr inbounds [4 x ptr], ptr %315, i64 0, i64 0
  %317 = load ptr, ptr %316, align 8, !tbaa !8
  %318 = load ptr, ptr %5, align 8, !tbaa !17
  %319 = getelementptr inbounds nuw %struct.AVTXContext, ptr %318, i32 0, i32 5
  %320 = load ptr, ptr %319, align 8, !tbaa !67
  %321 = getelementptr inbounds %struct.AVTXContext, ptr %320, i64 0
  %322 = load ptr, ptr %6, align 8, !tbaa !8
  %323 = load ptr, ptr %14, align 8, !tbaa !59
  call void %317(ptr noundef %321, ptr noundef %322, ptr noundef %323, i64 noundef 16)
  call void @llvm.lifetime.end.p0(i64 48, ptr %15) #10
  call void @llvm.lifetime.end.p0(i64 8, ptr %14) #10
  call void @llvm.lifetime.end.p0(i64 8, ptr %13) #10
  call void @llvm.lifetime.end.p0(i64 8, ptr %12) #10
  call void @llvm.lifetime.end.p0(i64 8, ptr %11) #10
  call void @llvm.lifetime.end.p0(i64 4, ptr %10) #10
  call void @llvm.lifetime.end.p0(i64 4, ptr %9) #10
  ret void
}