; Function Attrs: nounwind uwtable
define internal void @ff_tx_rdft_c2r_double_c(ptr noundef readonly captures(none) %0, ptr noundef %1, ptr noundef %2, i64 %3) #3 {
  %5 = load i32, ptr %0, align 8, !tbaa !16
  %6 = ashr i32 %5, 1
  %7 = ashr i32 %5, 2
  %8 = getelementptr inbounds nuw i8, ptr %0, i64 16
  %9 = load ptr, ptr %8, align 8, !tbaa !26
  %10 = getelementptr inbounds nuw i8, ptr %9, i64 64
  %11 = sext i32 %7 to i64
  %12 = getelementptr inbounds double, ptr %10, i64 %11
  %13 = sext i32 %6 to i64
  %14 = getelementptr inbounds %struct.AVComplexDouble, ptr %2, i64 %13
  %15 = load double, ptr %14, align 8, !tbaa !50
  %16 = getelementptr inbounds nuw i8, ptr %2, i64 8
  %17 = load double, ptr %2, align 8, !tbaa !50
  %18 = fadd nsz double %15, %17
  store double %18, ptr %2, align 8, !tbaa !50
  %19 = fsub nsz double %17, %15
  store double %19, ptr %16, align 8, !tbaa !52
  %20 = load double, ptr %9, align 8, !tbaa !27
  %21 = fmul nsz double %18, %20
  store double %21, ptr %2, align 8, !tbaa !50
  %22 = getelementptr inbounds nuw i8, ptr %9, i64 8
  %23 = load double, ptr %22, align 8, !tbaa !27
  %24 = fmul nsz double %19, %23
  store double %24, ptr %16, align 8, !tbaa !52
  %25 = getelementptr inbounds nuw i8, ptr %9, i64 16
  %26 = load double, ptr %25, align 8, !tbaa !27
  %27 = getelementptr inbounds %struct.AVComplexDouble, ptr %2, i64 %11
  %28 = load double, ptr %27, align 8, !tbaa !50
  %29 = fmul nsz double %26, %28
  store double %29, ptr %27, align 8, !tbaa !50
  %30 = getelementptr inbounds nuw i8, ptr %9, i64 24
  %31 = load double, ptr %30, align 8, !tbaa !27
  %32 = getelementptr inbounds nuw i8, ptr %27, i64 8
  %33 = load double, ptr %32, align 8, !tbaa !52
  %34 = fmul nsz double %31, %33
  store double %34, ptr %32, align 8, !tbaa !52
  %35 = icmp sgt i32 %7, 1
  br i1 %35, label %.lr.ph, label %._crit_edge

.lr.ph:                                           ; preds = %4
  %36 = getelementptr inbounds nuw i8, ptr %9, i64 32
  %37 = getelementptr inbounds nuw i8, ptr %9, i64 40
  %38 = getelementptr inbounds nuw i8, ptr %9, i64 48
  %39 = getelementptr inbounds nuw i8, ptr %9, i64 56
  %wide.trip.count = zext nneg i32 %7 to i64
  br label %44

._crit_edge:                                      ; preds = %44, %4
  %40 = getelementptr inbounds nuw i8, ptr %0, i64 40
  %41 = load ptr, ptr %40, align 8, !tbaa !4
  %42 = getelementptr inbounds nuw i8, ptr %0, i64 32
  %43 = load ptr, ptr %42, align 8, !tbaa !57
  tail call void %41(ptr noundef %43, ptr noundef %1, ptr noundef nonnull %2, i64 noundef 16) #16
  ret void

44:                                               ; preds = %.lr.ph, %44
  %indvars.iv = phi i64 [ 1, %.lr.ph ], [ %indvars.iv.next, %44 ]
  %45 = load double, ptr %36, align 8, !tbaa !27
  %46 = getelementptr inbounds nuw %struct.AVComplexDouble, ptr %2, i64 %indvars.iv
  %47 = load double, ptr %46, align 8, !tbaa !50
  %48 = sub nsw i64 %13, %indvars.iv
  %49 = getelementptr inbounds %struct.AVComplexDouble, ptr %2, i64 %48
  %50 = load double, ptr %49, align 8, !tbaa !50
  %51 = fadd nsz double %47, %50
  %52 = fmul nsz double %45, %51
  %53 = load double, ptr %37, align 8, !tbaa !27
  %54 = getelementptr inbounds nuw i8, ptr %46, i64 8
  %55 = load double, ptr %54, align 8, !tbaa !52
  %56 = getelementptr inbounds nuw i8, ptr %49, i64 8
  %57 = load double, ptr %56, align 8, !tbaa !52
  %58 = fsub nsz double %55, %57
  %59 = fmul nsz double %53, %58
  %60 = load double, ptr %38, align 8, !tbaa !27
  %61 = fadd nsz double %55, %57
  %62 = fmul nsz double %60, %61
  %63 = load double, ptr %39, align 8, !tbaa !27
  %64 = fsub nsz double %47, %50
  %65 = fmul nsz double %64, %63
  %66 = getelementptr inbounds nuw double, ptr %10, i64 %indvars.iv
  %67 = load double, ptr %66, align 8, !tbaa !27
  %68 = getelementptr inbounds nuw double, ptr %12, i64 %indvars.iv
  %69 = load double, ptr %68, align 8, !tbaa !27
  %70 = fneg nsz double %69
  %71 = fmul nsz double %65, %70
  %72 = tail call nsz double @llvm.fmuladd.f64(double %62, double %67, double %71)
  %73 = fmul nsz double %65, %67
  %74 = tail call nsz double @llvm.fmuladd.f64(double %62, double %69, double %73)
  %75 = fadd nsz double %52, %72
  store double %75, ptr %46, align 8, !tbaa !50
  %76 = fsub nsz double %74, %59
  store double %76, ptr %54, align 8, !tbaa !52
  %77 = fsub nsz double %52, %72
  store double %77, ptr %49, align 8, !tbaa !50
  %78 = fadd nsz double %59, %74
  store double %78, ptr %56, align 8, !tbaa !52
  %indvars.iv.next = add nuw nsw i64 %indvars.iv, 1
  %exitcond.not = icmp eq i64 %indvars.iv.next, %wide.trip.count
  br i1 %exitcond.not, label %._crit_edge, label %44, !llvm.loop !149
}